target datalayout = "e-m:e-p270:32:32-p271:32:32-p272:64:64-i64:64-i128:128-f80:128-n8:16:32:64-S128"
target triple = "x86_64-unknown-linux-gnu"

%"class.icu_75::UnicodeString" = type { %"class.icu_75::Replaceable", %"union.icu_75::UnicodeString::StackBufferOrFields" }
%"class.icu_75::Replaceable" = type { %"class.icu_75::UObject" }
%"class.icu_75::UObject" = type { ptr }
%"union.icu_75::UnicodeString::StackBufferOrFields" = type { %struct.anon.0, [32 x i8] }
%struct.anon.0 = type { i16, i32, i32, ptr }

@.str.10 = private unnamed_addr constant [19 x i8] c"^translate\\s*?(.*)\00", align 1

; Function Attrs: mustprogress uwtable
define dso_local i32 @getTranslate(ptr noundef %source, i32 noundef %srcLen, ptr noundef %dest, i32 noundef %destCapacity, ptr noundef %status) #0 personality ptr @__gxx_personality_v0 {
entry:
  %source.addr = alloca ptr, align 8
  %srcLen.addr = alloca i32, align 4
  %dest.addr = alloca ptr, align 8
  %destCapacity.addr = alloca i32, align 4
  %status.addr = alloca ptr, align 8
  %notePatternString = alloca %"class.icu_75::UnicodeString", align 8
  %destLen = alloca i32, align 4
  %agg.tmp = alloca %"class.icu_75::UnicodeString", align 8
  %exn.slot = alloca ptr, align 8
  %ehselector.slot = alloca i32, align 4
  store ptr %source, ptr %source.addr, align 8
  store i32 %srcLen, ptr %srcLen.addr, align 4
  store ptr %dest, ptr %dest.addr, align 8
  store i32 %destCapacity, ptr %destCapacity.addr, align 4
  store ptr %status, ptr %status.addr, align 8
  call void @_ZN6icu_7513UnicodeStringC1EPKc(ptr noundef nonnull align 8 dereferenceable(64) %notePatternString, ptr noundef @.str.10)
  %0 = load ptr, ptr %source.addr, align 8
  %1 = load i32, ptr %srcLen.addr, align 4
  %2 = load ptr, ptr %dest.addr, align 8
  %3 = load i32, ptr %destCapacity.addr, align 4
  invoke void @_ZN6icu_7513UnicodeStringC1ERKS0_(ptr noundef nonnull align 8 dereferenceable(64) %agg.tmp, ptr noundef nonnull align 8 dereferenceable(64) %notePatternString)
          to label %invoke.cont unwind label %lpad

invoke.cont:                                      ; preds = %entry
  %4 = load ptr, ptr %status.addr, align 8
  %call = invoke i32 @getText(ptr noundef %0, i32 noundef %1, ptr noundef %2, i32 noundef %3, ptr noundef %agg.tmp, ptr noundef %4)
          to label %invoke.cont2 unwind label %lpad1

invoke.cont2:                                     ; preds = %invoke.cont
  call void @_ZN6icu_7513UnicodeStringD1Ev(ptr noundef nonnull align 8 dereferenceable(64) %agg.tmp) #5
  store i32 %call, ptr %destLen, align 4
  %5 = load ptr, ptr %dest.addr, align 8
  %6 = load ptr, ptr %5, align 8
  %7 = load i32, ptr %destLen, align 4
  %8 = load ptr, ptr %status.addr, align 8
  %call4 = invoke i32 @trim(ptr noundef %6, i32 noundef %7, ptr noundef %8)
          to label %invoke.cont3 unwind label %lpad

invoke.cont3:                                     ; preds = %invoke.cont2
  call void @_ZN6icu_7513UnicodeStringD1Ev(ptr noundef nonnull align 8 dereferenceable(64) %notePatternString) #5
  ret i32 %call4

lpad:                                             ; preds = %invoke.cont2, %entry
  %9 = landingpad { ptr, i32 }
          cleanup
  %10 = extractvalue { ptr, i32 } %9, 0
  store ptr %10, ptr %exn.slot, align 8
  %11 = extractvalue { ptr, i32 } %9, 1
  store i32 %11, ptr %ehselector.slot, align 4
  br label %ehcleanup

lpad1:                                            ; preds = %invoke.cont
  %12 = landingpad { ptr, i32 }
          cleanup
  %13 = extractvalue { ptr, i32 } %12, 0
  store ptr %13, ptr %exn.slot, align 8
  %14 = extractvalue { ptr, i32 } %12, 1
  store i32 %14, ptr %ehselector.slot, align 4
  call void @_ZN6icu_7513UnicodeStringD1Ev(ptr noundef nonnull align 8 dereferenceable(64) %agg.tmp) #5
  br label %ehcleanup

ehcleanup:                                        ; preds = %lpad1, %lpad
  call void @_ZN6icu_7513UnicodeStringD1Ev(ptr noundef nonnull align 8 dereferenceable(64) %notePatternString) #5
  br label %eh.resume

eh.resume:                                        ; preds = %ehcleanup
  %exn = load ptr, ptr %exn.slot, align 8
  %sel = load i32, ptr %ehselector.slot, align 4
  %lpad.val = insertvalue { ptr, i32 } poison, ptr %exn, 0
  %lpad.val5 = insertvalue { ptr, i32 } %lpad.val, i32 %sel, 1
  resume { ptr, i32 } %lpad.val5
}